target datalayout = "e-m:e-p270:32:32-p271:32:32-p272:64:64-i64:64-i128:128-f80:128-n8:16:32:64-S128"
target triple = "x86_64-pc-linux-gnu"

%struct.ole2_header_tag = type { [8 x i8], [16 x i8], i16, i16, i16, i16, i32, [2 x i32], i32, i32, i32, i32, i32, i32, i32, i32, [109 x i32], i32, i32, i64, ptr, ptr, ptr, i8, i8, i8, ptr }
%struct.cl_fmap = type { ptr, ptr, ptr, i64, i64, i64, i64, i8, i8, i8, i64, i64, i64, i64, ptr, ptr, ptr, ptr, ptr, ptr, ptr, i8, [16 x i8], i8, [20 x i8], i8, [32 x i8], ptr, ptr }

; Function Attrs: nounwind uwtable
define internal ptr @fmap_need_off_once(ptr noundef %0, i64 noundef %1, i64 noundef %2) #0 {
  %4 = alloca ptr, align 8
  %5 = alloca i64, align 8
  %6 = alloca i64, align 8
  store ptr %0, ptr %4, align 8
  store i64 %1, ptr %5, align 8
  store i64 %2, ptr %6, align 8
  %7 = load ptr, ptr %4, align 8
  %8 = getelementptr inbounds %struct.cl_fmap, ptr %7, i32 0, i32 15
  %9 = load ptr, ptr %8, align 8
  %10 = load ptr, ptr %4, align 8
  %11 = load i64, ptr %5, align 8
  %12 = load i64, ptr %6, align 8
  %13 = call ptr %9(ptr noundef %10, i64 noundef %11, i64 noundef %12, i32 noundef 0)
  ret ptr %13
}

; Function Attrs: nounwind uwtable
define internal zeroext i1 @ole2_read_block(ptr noundef %0, ptr noundef %1, i64 noundef %2, i32 noundef %3) #0 {
  %5 = alloca i1, align 1
  %6 = alloca ptr, align 8
  %7 = alloca ptr, align 8
  %8 = alloca i64, align 8
  %9 = alloca i32, align 4
  %10 = alloca i64, align 8
  %11 = alloca i64, align 8
  %12 = alloca ptr, align 8
  store ptr %0, ptr %6, align 8
  store ptr %1, ptr %7, align 8
  store i64 %2, ptr %8, align 8
  store i32 %3, ptr %9, align 4
  %13 = load i32, ptr %9, align 4
  %14 = icmp slt i32 %13, 0
  br i1 %14, label %15, label %16

15:                                               ; preds = %4
  store i1 false, ptr %5, align 1
  br label %112

16:                                               ; preds = %4
  %17 = load i32, ptr %9, align 4
  %18 = sext i32 %17 to i64
  %19 = load ptr, ptr %6, align 8
  %20 = getelementptr inbounds %struct.ole2_header_tag, ptr %19, i32 0, i32 5
  %21 = load i16, ptr %20, align 2
  %22 = zext i16 %21 to i32
  %23 = zext i32 %22 to i64
  %24 = shl i64 %18, %23
  %25 = load ptr, ptr %6, align 8
  %26 = getelementptr inbounds %struct.ole2_header_tag, ptr %25, i32 0, i32 5
  %27 = load i16, ptr %26, align 2
  %28 = zext i16 %27 to i32
  %29 = zext i32 %28 to i64
  %30 = shl i64 1, %29
  %31 = icmp ugt i64 512, %30
  br i1 %31, label %32, label %33

32:                                               ; preds = %16
  br label %40

33:                                               ; preds = %16
  %34 = load ptr, ptr %6, align 8
  %35 = getelementptr inbounds %struct.ole2_header_tag, ptr %34, i32 0, i32 5
  %36 = load i16, ptr %35, align 2
  %37 = zext i16 %36 to i32
  %38 = zext i32 %37 to i64
  %39 = shl i64 1, %38
  br label %40

40:                                               ; preds = %33, %32
  %41 = phi i64 [ 512, %32 ], [ %39, %33 ]
  %42 = sub i64 2147483647, %41
  %43 = icmp ult i64 %24, %42
  br i1 %43, label %44, label %71

44:                                               ; preds = %40
  %45 = load i32, ptr %9, align 4
  %46 = load ptr, ptr %6, align 8
  %47 = getelementptr inbounds %struct.ole2_header_tag, ptr %46, i32 0, i32 5
  %48 = load i16, ptr %47, align 2
  %49 = zext i16 %48 to i32
  %50 = shl i32 %45, %49
  %51 = load ptr, ptr %6, align 8
  %52 = getelementptr inbounds %struct.ole2_header_tag, ptr %51, i32 0, i32 5
  %53 = load i16, ptr %52, align 2
  %54 = zext i16 %53 to i32
  %55 = shl i32 1, %54
  %56 = icmp sgt i32 512, %55
  br i1 %56, label %57, label %58

57:                                               ; preds = %44
  br label %64

58:                                               ; preds = %44
  %59 = load ptr, ptr %6, align 8
  %60 = getelementptr inbounds %struct.ole2_header_tag, ptr %59, i32 0, i32 5
  %61 = load i16, ptr %60, align 2
  %62 = zext i16 %61 to i32
  %63 = shl i32 1, %62
  br label %64

64:                                               ; preds = %58, %57
  %65 = phi i32 [ 512, %57 ], [ %63, %58 ]
  %66 = add nsw i32 %50, %65
  %67 = sext i32 %66 to i64
  store i64 %67, ptr %10, align 8
  %68 = load i64, ptr %10, align 8
  %69 = load i64, ptr %8, align 8
  %70 = add i64 %68, %69
  store i64 %70, ptr %11, align 8
  br label %74

71:                                               ; preds = %40
  %72 = load i64, ptr %8, align 8
  %73 = sub i64 2147483647, %72
  store i64 %73, ptr %10, align 8
  store i64 2147483647, ptr %11, align 8
  br label %74

74:                                               ; preds = %71, %64
  %75 = load i64, ptr %11, align 8
  %76 = icmp eq i64 %75, 0
  br i1 %76, label %83, label %77

77:                                               ; preds = %74
  %78 = load i64, ptr %10, align 8
  %79 = load ptr, ptr %6, align 8
  %80 = getelementptr inbounds %struct.ole2_header_tag, ptr %79, i32 0, i32 19
  %81 = load i64, ptr %80, align 8
  %82 = icmp uge i64 %78, %81
  br i1 %82, label %83, label %84

83:                                               ; preds = %77, %74
  store i1 false, ptr %5, align 1
  br label %112

84:                                               ; preds = %77
  %85 = load i64, ptr %11, align 8
  %86 = load ptr, ptr %6, align 8
  %87 = getelementptr inbounds %struct.ole2_header_tag, ptr %86, i32 0, i32 19
  %88 = load i64, ptr %87, align 8
  %89 = icmp ugt i64 %85, %88
  br i1 %89, label %90, label %98

90:                                               ; preds = %84
  %91 = load ptr, ptr %7, align 8
  %92 = load i64, ptr %8, align 8
  call void @llvm.memset.p0.i64(ptr align 1 %91, i8 0, i64 %92, i1 false)
  %93 = load ptr, ptr %6, align 8
  %94 = getelementptr inbounds %struct.ole2_header_tag, ptr %93, i32 0, i32 19
  %95 = load i64, ptr %94, align 8
  %96 = load i64, ptr %10, align 8
  %97 = sub i64 %95, %96
  store i64 %97, ptr %8, align 8
  br label %98

98:                                               ; preds = %90, %84
  br label %99

99:                                               ; preds = %98
  %100 = load ptr, ptr %6, align 8
  %101 = getelementptr inbounds %struct.ole2_header_tag, ptr %100, i32 0, i32 22
  %102 = load ptr, ptr %101, align 8
  %103 = load i64, ptr %10, align 8
  %104 = load i64, ptr %8, align 8
  %105 = call ptr @fmap_need_off_once(ptr noundef %102, i64 noundef %103, i64 noundef %104)
  store ptr %105, ptr %12, align 8
  %106 = icmp ne ptr %105, null
  br i1 %106, label %108, label %107

107:                                              ; preds = %99
  store i1 false, ptr %5, align 1
  br label %112

108:                                              ; preds = %99
  %109 = load ptr, ptr %7, align 8
  %110 = load ptr, ptr %12, align 8
  %111 = load i64, ptr %8, align 8
  call void @llvm.memcpy.p0.p0.i64(ptr align 1 %109, ptr align 1 %110, i64 %111, i1 false)
  store i1 true, ptr %5, align 1
  br label %112

112:                                              ; preds = %108, %107, %83, %15
  %113 = load i1, ptr %5, align 1
  ret i1 %113
}