; Function Attrs: nounwind uwtable
define internal fastcc noundef zeroext i1 @ole2_read_block(ptr nocapture noundef readonly %0, ptr nocapture noundef writeonly %1, i64 noundef %2, i32 noundef %3) unnamed_addr #2 {
  %5 = icmp slt i32 %3, 0
  br i1 %5, label %39, label %6

6:                                                ; preds = %4
  %7 = zext nneg i32 %3 to i64
  %8 = getelementptr inbounds i8, ptr %0, i64 30
  %9 = load i16, ptr %8, align 2
  %10 = zext i16 %9 to i64
  %11 = shl i64 %7, %10
  %12 = icmp ult i16 %9, 9
  %.neg = shl nsw i64 -1, %10
  %13 = add nsw i64 %.neg, 2147483647
  %.neg35 = select i1 %12, i64 2147483135, i64 %13
  %14 = icmp ult i64 %11, %.neg35
  br i1 %14, label %16, label %.thread

.thread:                                          ; preds = %6
  %15 = sub nsw i64 2147483647, %2
  br label %24

16:                                               ; preds = %6
  %17 = zext i16 %9 to i32
  %18 = shl i32 %3, %17
  %19 = shl nuw i32 1, %17
  %spec.select = tail call i32 @llvm.smax.i32(i32 %19, i32 512)
  %20 = add nsw i32 %spec.select, %18
  %21 = sext i32 %20 to i64
  %22 = add nsw i64 %21, %2
  %23 = icmp eq i64 %22, 0
  br i1 %23, label %39, label %24

24:                                               ; preds = %.thread, %16
  %.02740 = phi i64 [ 2147483647, %.thread ], [ %22, %16 ]
  %.02839 = phi i64 [ %15, %.thread ], [ %21, %16 ]
  %25 = getelementptr inbounds i8, ptr %0, i64 520
  %26 = load i64, ptr %25, align 8
  %.not = icmp ult i64 %.02839, %26
  br i1 %.not, label %27, label %39

27:                                               ; preds = %24
  %28 = icmp ugt i64 %.02740, %26
  br i1 %28, label %29, label %32

29:                                               ; preds = %27
  tail call void @llvm.memset.p0.i64(ptr align 1 %1, i8 0, i64 %2, i1 false)
  %30 = load i64, ptr %25, align 8
  %31 = sub i64 %30, %.02839
  br label %32

32:                                               ; preds = %27, %29
  %.029 = phi i64 [ %31, %29 ], [ %2, %27 ]
  %33 = getelementptr inbounds i8, ptr %0, i64 544
  %34 = load ptr, ptr %33, align 8
  %35 = getelementptr inbounds i8, ptr %34, i64 104
  %36 = load ptr, ptr %35, align 8
  %37 = tail call ptr %36(ptr noundef %34, i64 noundef %.02839, i64 noundef %.029, i32 noundef 0) #21
  %.not36 = icmp eq ptr %37, null
  br i1 %.not36, label %39, label %38

38:                                               ; preds = %32
  tail call void @llvm.memcpy.p0.p0.i64(ptr align 1 %1, ptr nonnull align 1 %37, i64 %.029, i1 false)
  br label %39

39:                                               ; preds = %32, %16, %24, %4, %38
  %.0 = phi i1 [ true, %38 ], [ false, %4 ], [ false, %24 ], [ false, %16 ], [ false, %32 ]
  ret i1 %.0
}